target datalayout = "e-m:e-p270:32:32-p271:32:32-p272:64:64-i64:64-i128:128-f80:128-n8:16:32:64-S128"
target triple = "x86_64-pc-linux-gnu"

; Function Attrs: nounwind uwtable
define i32 @ffio_read_size(ptr noundef %0, ptr noundef %1, i32 noundef %2) #0 {
  %4 = alloca i32, align 4
  %5 = alloca ptr, align 8
  %6 = alloca ptr, align 8
  %7 = alloca i32, align 4
  %8 = alloca i32, align 4
  %9 = alloca i32, align 4
  store ptr %0, ptr %5, align 8, !tbaa !14
  store ptr %1, ptr %6, align 8, !tbaa !9
  store i32 %2, ptr %7, align 4, !tbaa !11
  call void @llvm.lifetime.start.p0(i64 4, ptr %8) #12
  %10 = load ptr, ptr %5, align 8, !tbaa !14
  %11 = load ptr, ptr %6, align 8, !tbaa !9
  %12 = load i32, ptr %7, align 4, !tbaa !11
  %13 = call i32 @avio_read(ptr noundef %10, ptr noundef %11, i32 noundef %12)
  store i32 %13, ptr %8, align 4, !tbaa !11
  %14 = load i32, ptr %8, align 4, !tbaa !11
  %15 = load i32, ptr %7, align 4, !tbaa !11
  %16 = icmp eq i32 %14, %15
  br i1 %16, label %17, label %19

17:                                               ; preds = %3
  %18 = load i32, ptr %8, align 4, !tbaa !11
  store i32 %18, ptr %4, align 4
  store i32 1, ptr %9, align 4
  br label %28

19:                                               ; preds = %3
  %20 = load i32, ptr %8, align 4, !tbaa !11
  %21 = icmp slt i32 %20, 0
  br i1 %21, label %22, label %27

22:                                               ; preds = %19
  %23 = load i32, ptr %8, align 4, !tbaa !11
  %24 = icmp ne i32 %23, -541478725
  br i1 %24, label %25, label %27

25:                                               ; preds = %22
  %26 = load i32, ptr %8, align 4, !tbaa !11
  store i32 %26, ptr %4, align 4
  store i32 1, ptr %9, align 4
  br label %28

27:                                               ; preds = %22, %19
  store i32 -1094995529, ptr %4, align 4
  store i32 1, ptr %9, align 4
  br label %28

28:                                               ; preds = %27, %25, %17
  call void @llvm.lifetime.end.p0(i64 4, ptr %8) #12
  %29 = load i32, ptr %4, align 4
  ret i32 %29
}