; Function Attrs: nounwind uwtable
define i32 @ffio_read_size(ptr noundef %0, ptr noundef %1, i32 noundef %2) local_unnamed_addr #3 {
  %4 = tail call i32 @avio_read(ptr noundef %0, ptr noundef %1, i32 noundef %2)
  %5 = icmp eq i32 %4, %2
  %6 = icmp slt i32 %4, 0
  %7 = icmp ne i32 %4, -541478725
  %or.cond = and i1 %6, %7
  %8 = or i1 %5, %or.cond
  %.0 = select i1 %8, i32 %4, i32 -1094995529
  ret i32 %.0
}